; Function Attrs: nounwind uwtable
define ptr @EVP_PKEY_fromdata_settable(ptr noundef %0, i32 noundef %1) local_unnamed_addr #0 {
  %cond.i = icmp eq ptr %0, null
  br i1 %cond.i, label %fromdata_init.exit, label %3

3:                                                ; preds = %2
  %4 = getelementptr inbounds nuw i8, ptr %0, i64 24
  %5 = load ptr, ptr %4, align 8, !tbaa !51
  %6 = icmp eq ptr %5, null
  br i1 %6, label %11, label %7

7:                                                ; preds = %3
  tail call void @evp_pkey_ctx_free_old_ops(ptr noundef nonnull %0) #6
  %8 = getelementptr inbounds nuw i8, ptr %0, i64 32
  %9 = load ptr, ptr %8, align 8, !tbaa !19
  %10 = icmp eq ptr %9, null
  br i1 %10, label %11, label %12

11:                                               ; preds = %7, %3
  store i32 0, ptr %0, align 8, !tbaa !3
  br label %fromdata_init.exit

fromdata_init.exit:                               ; preds = %2, %11
  tail call void @ERR_new() #6
  tail call void @ERR_set_debug(ptr noundef nonnull @.str, i32 noundef 354, ptr noundef nonnull @__func__.fromdata_init) #6
  tail call void (i32, i32, ptr, ...) @ERR_set_error(i32 noundef 6, i32 noundef 150, ptr noundef null) #6
  br label %14

12:                                               ; preds = %7
  store i32 0, ptr %0, align 8, !tbaa !3
  %13 = tail call ptr @evp_keymgmt_import_types(ptr noundef nonnull %9, i32 noundef %1) #6
  br label %14

14:                                               ; preds = %fromdata_init.exit, %12
  %.0 = phi ptr [ %13, %12 ], [ null, %fromdata_init.exit ]
  ret ptr %.0
}